; Function Attrs: mustprogress uwtable
define void @_ZNK6casadi12ConstantFile14add_dependencyERNS_13CodeGeneratorE(ptr noundef nonnull align 8 dereferenceable(120) %0, ptr noundef nonnull align 8 dereferenceable(3097) %1) unnamed_addr #3 align 2 {
  %3 = load ptr, ptr %0, align 8
  %4 = getelementptr inbounds i8, ptr %3, i64 352
  %5 = load ptr, ptr %4, align 8
  %6 = tail call noundef nonnull align 8 dereferenceable(8) ptr %5(ptr noundef nonnull align 8 dereferenceable(64) %0, i64 noundef 0)
  %7 = tail call noundef i64 @_ZNK6casadi8Sparsity3nnzEv(ptr noundef nonnull align 8 dereferenceable(8) %6)
  tail call void @_ZN6casadi13CodeGenerator17define_rom_doubleEPKvx(ptr noundef nonnull align 8 dereferenceable(3097) %1, ptr noundef nonnull %0, i64 noundef %7)
  ret void
}